target datalayout = "e-m:e-p270:32:32-p271:32:32-p272:64:64-i64:64-i128:128-f80:128-n8:16:32:64-S128"
target triple = "x86_64-unknown-linux-gnu"

%"class.icu_75::number::impl::ScientificHandler" = type { %"class.icu_75::number::impl::MicroPropsGenerator", %"class.icu_75::number::impl::MultiplierProducer", %"struct.icu_75::number::Notation::NotationUnion::ScientificSettings", ptr, ptr }
%"class.icu_75::number::impl::MicroPropsGenerator" = type { ptr }
%"class.icu_75::number::impl::MultiplierProducer" = type { ptr }
%"struct.icu_75::number::Notation::NotationUnion::ScientificSettings" = type { i8, i8, i16, i32 }
%"class.icu_75::number::Notation" = type { i32, %"union.icu_75::number::Notation::NotationUnion" }
%"union.icu_75::number::Notation::NotationUnion" = type { %"struct.icu_75::number::Notation::NotationUnion::ScientificSettings" }

@_ZTVN6icu_756number4impl18MultiplierProducerE = external unnamed_addr constant { [5 x ptr] }, align 8

; Function Attrs: mustprogress nounwind uwtable
define linkonce_odr void @_ZN6icu_756number4impl18MultiplierProducerC2Ev(ptr noundef nonnull align 8 dereferenceable(8) %this) unnamed_addr #0 comdat align 2 {
entry:
  %this.addr = alloca ptr, align 8
  store ptr %this, ptr %this.addr, align 8
  %this1 = load ptr, ptr %this.addr, align 8
  store ptr getelementptr inbounds ({ [5 x ptr] }, ptr @_ZTVN6icu_756number4impl18MultiplierProducerE, i32 0, i32 0, i32 2), ptr %this1, align 8
  ret void
}

; Function Attrs: mustprogress nounwind uwtable
define linkonce_odr void @_ZN6icu_756number4impl19MicroPropsGeneratorC2Ev(ptr noundef nonnull align 8 dereferenceable(8) %this) unnamed_addr #0 comdat align 2 {
entry:
  %this.addr = alloca ptr, align 8
  store ptr %this, ptr %this.addr, align 8
  %this1 = load ptr, ptr %this.addr, align 8
  store ptr getelementptr inbounds ({ [5 x ptr] }, ptr @_ZTVN6icu_756number4impl19MicroPropsGeneratorE, i32 0, i32 0, i32 2), ptr %this1, align 8
  ret void
}

; Function Attrs: mustprogress nounwind uwtable
define void @_ZN6icu_756number4impl17ScientificHandlerC2EPKNS0_8NotationEPKNS_20DecimalFormatSymbolsEPKNS1_19MicroPropsGeneratorE(ptr noundef nonnull align 8 dereferenceable(40) %this, ptr noundef %notation, ptr noundef %symbols, ptr noundef %parent) unnamed_addr #0 align 2 {
entry:
  %this.addr = alloca ptr, align 8
  %notation.addr = alloca ptr, align 8
  %symbols.addr = alloca ptr, align 8
  %parent.addr = alloca ptr, align 8
  store ptr %this, ptr %this.addr, align 8
  store ptr %notation, ptr %notation.addr, align 8
  store ptr %symbols, ptr %symbols.addr, align 8
  store ptr %parent, ptr %parent.addr, align 8
  %this1 = load ptr, ptr %this.addr, align 8
  call void @_ZN6icu_756number4impl19MicroPropsGeneratorC2Ev(ptr noundef nonnull align 8 dereferenceable(8) %this1) #13
  %0 = getelementptr inbounds i8, ptr %this1, i64 8
  call void @_ZN6icu_756number4impl18MultiplierProducerC2Ev(ptr noundef nonnull align 8 dereferenceable(8) %0) #13
  store ptr getelementptr inbounds ({ [6 x ptr], [5 x ptr] }, ptr @_ZTVN6icu_756number4impl17ScientificHandlerE, i32 0, i32 0, i32 2), ptr %this1, align 8
  %add.ptr = getelementptr inbounds i8, ptr %this1, i64 8
  store ptr getelementptr inbounds ({ [6 x ptr], [5 x ptr] }, ptr @_ZTVN6icu_756number4impl17ScientificHandlerE, i32 0, i32 1, i32 2), ptr %add.ptr, align 8
  %fSettings = getelementptr inbounds %"class.icu_75::number::impl::ScientificHandler", ptr %this1, i32 0, i32 2
  %1 = load ptr, ptr %notation.addr, align 8
  %fUnion = getelementptr inbounds %"class.icu_75::number::Notation", ptr %1, i32 0, i32 1
  call void @llvm.memcpy.p0.p0.i64(ptr align 8 %fSettings, ptr align 4 %fUnion, i64 8, i1 false)
  %fSymbols = getelementptr inbounds %"class.icu_75::number::impl::ScientificHandler", ptr %this1, i32 0, i32 3
  %2 = load ptr, ptr %symbols.addr, align 8
  store ptr %2, ptr %fSymbols, align 8
  %fParent = getelementptr inbounds %"class.icu_75::number::impl::ScientificHandler", ptr %this1, i32 0, i32 4
  %3 = load ptr, ptr %parent.addr, align 8
  store ptr %3, ptr %fParent, align 8
  ret void
}