; Function Attrs: mustprogress nofree norecurse nosync nounwind willreturn memory(argmem: readwrite) uwtable
define void @_ZN6icu_756number4impl17ScientificHandlerC2EPKNS0_8NotationEPKNS_20DecimalFormatSymbolsEPKNS1_19MicroPropsGeneratorE(ptr nocapture noundef nonnull writeonly align 8 dereferenceable(40) %this, ptr nocapture noundef readonly %notation, ptr noundef %symbols, ptr noundef %parent) unnamed_addr #14 align 2 {
entry:
  %0 = getelementptr inbounds i8, ptr %this, i64 8
  store ptr getelementptr inbounds ({ [6 x ptr], [5 x ptr] }, ptr @_ZTVN6icu_756number4impl17ScientificHandlerE, i64 0, i32 0, i64 2), ptr %this, align 8
  store ptr getelementptr inbounds ({ [6 x ptr], [5 x ptr] }, ptr @_ZTVN6icu_756number4impl17ScientificHandlerE, i64 0, i32 1, i64 2), ptr %0, align 8
  %fSettings = getelementptr inbounds i8, ptr %this, i64 16
  %fUnion = getelementptr inbounds i8, ptr %notation, i64 4
  %1 = load i64, ptr %fUnion, align 4
  store i64 %1, ptr %fSettings, align 8
  %fSymbols = getelementptr inbounds i8, ptr %this, i64 24
  store ptr %symbols, ptr %fSymbols, align 8
  %fParent = getelementptr inbounds i8, ptr %this, i64 32
  store ptr %parent, ptr %fParent, align 8
  ret void
}